target datalayout = "e-m:e-p270:32:32-p271:32:32-p272:64:64-i64:64-i128:128-f80:128-n8:16:32:64-S128"
target triple = "x86_64-pc-linux-gnu"

@.str.142 = private unnamed_addr constant [25 x i8] c"DEC DNA Routing Protocol\00", align 1
@.str.143 = private unnamed_addr constant [8 x i8] c"DEC_DNA\00", align 1
@.str.144 = private unnamed_addr constant [8 x i8] c"dec_dna\00", align 1
@proto_dec_rt = internal global i32 0, align 4
@dec_rt_handle = internal global ptr null, align 8

; Function Attrs: null_pointer_is_valid sspstrong uwtable
define hidden void @proto_register_dec_rt() #0 {
  %1 = alloca ptr, align 8
  call void @llvm.lifetime.start.p0(i64 8, ptr %1) #5
  %2 = call i32 @proto_register_protocol(ptr noundef @.str.142, ptr noundef @.str.143, ptr noundef @.str.144)
  store i32 %2, ptr @proto_dec_rt, align 4
  %3 = load i32, ptr @proto_dec_rt, align 4
  call void @proto_register_field_array(i32 noundef %3, ptr noundef @proto_register_dec_rt.hf, i32 noundef 63)
  call void @proto_register_subtree_array(ptr noundef @proto_register_dec_rt.ett, i32 noundef 11)
  %4 = load i32, ptr @proto_dec_rt, align 4
  %5 = call ptr @expert_register_protocol(i32 noundef %4)
  store ptr %5, ptr %1, align 8
  %6 = load ptr, ptr %1, align 8
  call void @expert_register_field_array(ptr noundef %6, ptr noundef @proto_register_dec_rt.ei, i32 noundef 1)
  %7 = load i32, ptr @proto_dec_rt, align 4
  %8 = call ptr @register_dissector(ptr noundef @.str.144, ptr noundef @dissect_dec_rt, i32 noundef %7)
  store ptr %8, ptr @dec_rt_handle, align 8
  call void @llvm.lifetime.end.p0(i64 8, ptr %1) #5
  ret void
}