; Function Attrs: null_pointer_is_valid sspstrong uwtable
define hidden void @proto_register_dec_rt() local_unnamed_addr #0 {
  %1 = tail call i32 @proto_register_protocol(ptr noundef nonnull @.str.142, ptr noundef nonnull @.str.143, ptr noundef nonnull @.str.144)
  store i32 %1, ptr @proto_dec_rt, align 4
  tail call void @proto_register_field_array(i32 noundef %1, ptr noundef nonnull @proto_register_dec_rt.hf, i32 noundef 63)
  tail call void @proto_register_subtree_array(ptr noundef nonnull @proto_register_dec_rt.ett, i32 noundef 11)
  %2 = load i32, ptr @proto_dec_rt, align 4
  %3 = tail call ptr @expert_register_protocol(i32 noundef %2)
  tail call void @expert_register_field_array(ptr noundef %3, ptr noundef nonnull @proto_register_dec_rt.ei, i32 noundef 1)
  %4 = load i32, ptr @proto_dec_rt, align 4
  %5 = tail call ptr @register_dissector(ptr noundef nonnull @.str.144, ptr noundef nonnull @dissect_dec_rt, i32 noundef %4)
  store ptr %5, ptr @dec_rt_handle, align 8
  ret void
}